	.file	"array.c"
	.text
	.globl	fill_s
	.type	fill_s, @function
fill_s:
.LFB2:
	.cfi_startproc
	pushq	%rbp
	.cfi_def_cfa_offset 16
	.cfi_offset 6, -16
	movq	%rsp, %rbp
	.cfi_def_cfa_register 6
	movq	%rdi, -8(%rbp)
	movq	-8(%rbp), %rax
	movl	$10, (%rax)
	movq	-8(%rbp), %rax
	addq	$32, %rax
	movl	$20, (%rax)
	movq	-8(%rbp), %rax
	addq	$64, %rax
	movl	$30, (%rax)
	popq	%rbp
	.cfi_def_cfa 7, 8
	ret
	.cfi_endproc
.LFE2:
	.size	fill_s, .-fill_s
	.section	.rodata
.LC0:
	.string	"%d %d %d\n"
	.text
	.globl	main
	.type	main, @function
main:
.LFB3:
	.cfi_startproc
	pushq	%rbp
	.cfi_def_cfa_offset 16
	.cfi_offset 6, -16
	movq	%rsp, %rbp
	.cfi_def_cfa_register 6
	subq	$16, %rsp
	movl	$24, %edi
	call	malloc
	movq	%rax, -8(%rbp)
	movq	-8(%rbp), %rax
	movq	%rax, %rdi
	call	fill_s
	movq	-8(%rbp), %rax
	addq	$8, %rax
	movl	(%rax), %ecx
	movq	-8(%rbp), %rax
	addq	$4, %rax
	movl	(%rax), %edx
	movq	-8(%rbp), %rax
	movl	(%rax), %eax
	movl	%eax, %esi
	movl	$.LC0, %edi
	movl	$0, %eax
	call	printf
	movl	$0, %eax
	leave
	.cfi_def_cfa 7, 8
	ret
	.cfi_endproc
.LFE3:
	.size	main, .-main
	.ident	"GCC: (Debian 4.9.2-10) 4.9.2"
	.section	.note.GNU-stack,"",@progbits
