	.file	"array_ways.c"
	.comm	a,12,1
	.text
	.globl	get_by_coordinates1
	.type	get_by_coordinates1, @function
get_by_coordinates1:
.LFB0:
	.cfi_startproc
	pushq	%rbp
	.cfi_def_cfa_offset 16
	.cfi_offset 6, -16
	movq	%rsp, %rbp
	.cfi_def_cfa_register 6
	movq	%rdi, -8(%rbp)
	movl	%esi, -12(%rbp)
	movl	%edx, -16(%rbp)
	movl	-12(%rbp), %eax
	cltq
	leaq	0(,%rax,4), %rdx
	movq	-8(%rbp), %rax
	addq	%rax, %rdx
	movl	-16(%rbp), %eax
	cltq
	movzbl	(%rdx,%rax), %eax
	popq	%rbp
	.cfi_def_cfa 7, 8
	ret
	.cfi_endproc
.LFE0:
	.size	get_by_coordinates1, .-get_by_coordinates1
	.globl	get_by_coordinates2
	.type	get_by_coordinates2, @function
get_by_coordinates2:
.LFB1:
	.cfi_startproc
	pushq	%rbp
	.cfi_def_cfa_offset 16
	.cfi_offset 6, -16
	movq	%rsp, %rbp
	.cfi_def_cfa_register 6
	movq	%rdi, -8(%rbp)
	movl	%esi, -12(%rbp)
	movl	%edx, -16(%rbp)
	movl	-12(%rbp), %eax
	leal	0(,%rax,4), %edx
	movl	-16(%rbp), %eax
	addl	%edx, %eax
	movslq	%eax, %rdx
	movq	-8(%rbp), %rax
	addq	%rdx, %rax
	movzbl	(%rax), %eax
	popq	%rbp
	.cfi_def_cfa 7, 8
	ret
	.cfi_endproc
.LFE1:
	.size	get_by_coordinates2, .-get_by_coordinates2
	.globl	get_by_coordinates3
	.type	get_by_coordinates3, @function
get_by_coordinates3:
.LFB2:
	.cfi_startproc
	pushq	%rbp
	.cfi_def_cfa_offset 16
	.cfi_offset 6, -16
	movq	%rsp, %rbp
	.cfi_def_cfa_register 6
	movq	%rdi, -8(%rbp)
	movl	%esi, -12(%rbp)
	movl	%edx, -16(%rbp)
	movl	-12(%rbp), %eax
	sall	$2, %eax
	movslq	%eax, %rdx
	movl	-16(%rbp), %eax
	cltq
	addq	%rax, %rdx
	movq	-8(%rbp), %rax
	addq	%rdx, %rax
	movzbl	(%rax), %eax
	popq	%rbp
	.cfi_def_cfa 7, 8
	ret
	.cfi_endproc
.LFE2:
	.size	get_by_coordinates3, .-get_by_coordinates3
	.section	.rodata
.LC0:
	.string	"%d\n"
	.text
	.globl	main
	.type	main, @function
main:
.LFB3:
	.cfi_startproc
	pushq	%rbp
	.cfi_def_cfa_offset 16
	.cfi_offset 6, -16
	movq	%rsp, %rbp
	.cfi_def_cfa_register 6
	movb	$123, a+11(%rip)
	movl	$3, %edx
	movl	$2, %esi
	movl	$a, %edi
	call	get_by_coordinates1
	movsbl	%al, %eax
	movl	%eax, %esi
	movl	$.LC0, %edi
	movl	$0, %eax
	call	printf
	movl	$3, %edx
	movl	$2, %esi
	movl	$a, %edi
	call	get_by_coordinates2
	movsbl	%al, %eax
	movl	%eax, %esi
	movl	$.LC0, %edi
	movl	$0, %eax
	call	printf
	movl	$3, %edx
	movl	$2, %esi
	movl	$a, %edi
	call	get_by_coordinates3
	movsbl	%al, %eax
	movl	%eax, %esi
	movl	$.LC0, %edi
	movl	$0, %eax
	call	printf
	popq	%rbp
	.cfi_def_cfa 7, 8
	ret
	.cfi_endproc
.LFE3:
	.size	main, .-main
	.ident	"GCC: (Debian 4.9.2-10) 4.9.2"
	.section	.note.GNU-stack,"",@progbits
